target datalayout = "e-m:e-p270:32:32-p271:32:32-p272:64:64-i64:64-i128:128-f80:128-n8:16:32:64-S128"
target triple = "x86_64-pc-linux-gnu"

%union.anon = type { i32 }
%struct.LZ4_stream_t_internal = type { [4096 x i32], ptr, ptr, i32, i32, i32 }
%struct.LZ4_unalign32 = type { i32 }
%struct.LZ4_unalignST = type { i64 }

@__const.LZ4_isLittleEndian.one = private unnamed_addr constant %union.anon { i32 1 }, align 4

; Function Attrs: nounwind uwtable
define internal i32 @LZ4_isLittleEndian() #0 {
  %1 = alloca %union.anon, align 4
  call void @llvm.lifetime.start.p0(i64 4, ptr %1) #10
  call void @llvm.memcpy.p0.p0.i64(ptr align 4 %1, ptr align 4 @__const.LZ4_isLittleEndian.one, i64 4, i1 false)
  %2 = getelementptr inbounds [4 x i8], ptr %1, i64 0, i64 0
  %3 = load i8, ptr %2, align 4, !tbaa !18
  %4 = zext i8 %3 to i32
  call void @llvm.lifetime.end.p0(i64 4, ptr %1) #10
  ret i32 %4
}

; Function Attrs: alwaysinline nounwind uwtable
define internal i32 @LZ4_hash4(i32 noundef %0, i32 noundef %1) #2 {
  %3 = alloca i32, align 4
  %4 = alloca i32, align 4
  %5 = alloca i32, align 4
  store i32 %0, ptr %4, align 4, !tbaa !4
  store i32 %1, ptr %5, align 4, !tbaa !4
  %6 = load i32, ptr %5, align 4, !tbaa !4
  %7 = icmp eq i32 %6, 3
  br i1 %7, label %8, label %12

8:                                                ; preds = %2
  %9 = load i32, ptr %4, align 4, !tbaa !4
  %10 = mul i32 %9, -1640531535
  %11 = lshr i32 %10, 19
  store i32 %11, ptr %3, align 4
  br label %16

12:                                               ; preds = %2
  %13 = load i32, ptr %4, align 4, !tbaa !4
  %14 = mul i32 %13, -1640531535
  %15 = lshr i32 %14, 20
  store i32 %15, ptr %3, align 4
  br label %16

16:                                               ; preds = %12, %8
  %17 = load i32, ptr %3, align 4
  ret i32 %17
}

; Function Attrs: nounwind uwtable
define internal i32 @LZ4_read32(ptr noundef %0) #0 {
  %2 = alloca ptr, align 8
  store ptr %0, ptr %2, align 8, !tbaa !8
  %3 = load ptr, ptr %2, align 8, !tbaa !8
  %4 = getelementptr inbounds nuw %struct.LZ4_unalign32, ptr %3, i32 0, i32 0
  %5 = load i32, ptr %4, align 1, !tbaa !55
  ret i32 %5
}

; Function Attrs: alwaysinline nounwind uwtable
define internal i32 @LZ4_hash5(i64 noundef %0, i32 noundef %1) #2 {
  %3 = alloca i32, align 4
  %4 = alloca i64, align 8
  %5 = alloca i32, align 4
  %6 = alloca i32, align 4
  %7 = alloca i64, align 8
  %8 = alloca i32, align 4
  %9 = alloca i64, align 8
  store i64 %0, ptr %4, align 8, !tbaa !14
  store i32 %1, ptr %5, align 4, !tbaa !4
  call void @llvm.lifetime.start.p0(i64 4, ptr %6) #10
  %10 = load i32, ptr %5, align 4, !tbaa !4
  %11 = icmp eq i32 %10, 3
  %12 = select i1 %11, i32 13, i32 12
  store i32 %12, ptr %6, align 4, !tbaa !4
  %13 = call i32 @LZ4_isLittleEndian()
  %14 = icmp ne i32 %13, 0
  br i1 %14, label %15, label %24

15:                                               ; preds = %2
  call void @llvm.lifetime.start.p0(i64 8, ptr %7) #10
  store i64 889523592379, ptr %7, align 8, !tbaa !14
  %16 = load i64, ptr %4, align 8, !tbaa !14
  %17 = shl i64 %16, 24
  %18 = mul i64 %17, 889523592379
  %19 = load i32, ptr %6, align 4, !tbaa !4
  %20 = sub i32 64, %19
  %21 = zext i32 %20 to i64
  %22 = lshr i64 %18, %21
  %23 = trunc i64 %22 to i32
  store i32 %23, ptr %3, align 4
  store i32 1, ptr %8, align 4
  call void @llvm.lifetime.end.p0(i64 8, ptr %7) #10
  br label %33

24:                                               ; preds = %2
  call void @llvm.lifetime.start.p0(i64 8, ptr %9) #10
  store i64 -7046029288634856825, ptr %9, align 8, !tbaa !14
  %25 = load i64, ptr %4, align 8, !tbaa !14
  %26 = lshr i64 %25, 24
  %27 = mul i64 %26, -7046029288634856825
  %28 = load i32, ptr %6, align 4, !tbaa !4
  %29 = sub i32 64, %28
  %30 = zext i32 %29 to i64
  %31 = lshr i64 %27, %30
  %32 = trunc i64 %31 to i32
  store i32 %32, ptr %3, align 4
  store i32 1, ptr %8, align 4
  call void @llvm.lifetime.end.p0(i64 8, ptr %9) #10
  br label %33

33:                                               ; preds = %24, %15
  call void @llvm.lifetime.end.p0(i64 4, ptr %6) #10
  %34 = load i32, ptr %3, align 4
  ret i32 %34
}

; Function Attrs: nounwind uwtable
define internal i64 @LZ4_read_ARCH(ptr noundef %0) #0 {
  %2 = alloca ptr, align 8
  store ptr %0, ptr %2, align 8, !tbaa !8
  %3 = load ptr, ptr %2, align 8, !tbaa !8
  %4 = getelementptr inbounds nuw %struct.LZ4_unalignST, ptr %3, i32 0, i32 0
  %5 = load i64, ptr %4, align 1, !tbaa !61
  ret i64 %5
}

; Function Attrs: alwaysinline nounwind uwtable
define internal i32 @LZ4_getIndexOnHash(i32 noundef %0, ptr noundef %1, i32 noundef %2) #2 {
  %4 = alloca i32, align 4
  %5 = alloca i32, align 4
  %6 = alloca ptr, align 8
  %7 = alloca i32, align 4
  %8 = alloca ptr, align 8
  %9 = alloca ptr, align 8
  store i32 %0, ptr %5, align 4, !tbaa !4
  store ptr %1, ptr %6, align 8, !tbaa !8
  store i32 %2, ptr %7, align 4, !tbaa !4
  %10 = load i32, ptr %7, align 4, !tbaa !4
  %11 = icmp eq i32 %10, 2
  br i1 %11, label %12, label %19

12:                                               ; preds = %3
  call void @llvm.lifetime.start.p0(i64 8, ptr %8) #10
  %13 = load ptr, ptr %6, align 8, !tbaa !8
  store ptr %13, ptr %8, align 8, !tbaa !16
  %14 = load ptr, ptr %8, align 8, !tbaa !16
  %15 = load i32, ptr %5, align 4, !tbaa !4
  %16 = zext i32 %15 to i64
  %17 = getelementptr inbounds nuw i32, ptr %14, i64 %16
  %18 = load i32, ptr %17, align 4, !tbaa !4
  store i32 %18, ptr %4, align 4
  call void @llvm.lifetime.end.p0(i64 8, ptr %8) #10
  br label %31

19:                                               ; preds = %3
  %20 = load i32, ptr %7, align 4, !tbaa !4
  %21 = icmp eq i32 %20, 3
  br i1 %21, label %22, label %30

22:                                               ; preds = %19
  call void @llvm.lifetime.start.p0(i64 8, ptr %9) #10
  %23 = load ptr, ptr %6, align 8, !tbaa !8
  store ptr %23, ptr %9, align 8, !tbaa !30
  %24 = load ptr, ptr %9, align 8, !tbaa !30
  %25 = load i32, ptr %5, align 4, !tbaa !4
  %26 = zext i32 %25 to i64
  %27 = getelementptr inbounds nuw i16, ptr %24, i64 %26
  %28 = load i16, ptr %27, align 2, !tbaa !32
  %29 = zext i16 %28 to i32
  store i32 %29, ptr %4, align 4
  call void @llvm.lifetime.end.p0(i64 8, ptr %9) #10
  br label %31

30:                                               ; preds = %19
  store i32 0, ptr %4, align 4
  br label %31

31:                                               ; preds = %30, %22, %12
  %32 = load i32, ptr %4, align 4
  ret i32 %32
}

; Function Attrs: alwaysinline nounwind uwtable
define internal void @LZ4_putIndexOnHash(i32 noundef %0, i32 noundef %1, ptr noundef %2, i32 noundef %3) #2 {
  %5 = alloca i32, align 4
  %6 = alloca i32, align 4
  %7 = alloca ptr, align 8
  %8 = alloca i32, align 4
  %9 = alloca ptr, align 8
  %10 = alloca ptr, align 8
  store i32 %0, ptr %5, align 4, !tbaa !4
  store i32 %1, ptr %6, align 4, !tbaa !4
  store ptr %2, ptr %7, align 8, !tbaa !8
  store i32 %3, ptr %8, align 4, !tbaa !4
  %11 = load i32, ptr %8, align 4, !tbaa !4
  switch i32 %11, label %12 [
    i32 0, label %13
    i32 1, label %13
    i32 2, label %14
    i32 3, label %21
  ]

12:                                               ; preds = %4
  br label %13

13:                                               ; preds = %4, %4, %12
  br label %29

14:                                               ; preds = %4
  call void @llvm.lifetime.start.p0(i64 8, ptr %9) #10
  %15 = load ptr, ptr %7, align 8, !tbaa !8
  store ptr %15, ptr %9, align 8, !tbaa !16
  %16 = load i32, ptr %5, align 4, !tbaa !4
  %17 = load ptr, ptr %9, align 8, !tbaa !16
  %18 = load i32, ptr %6, align 4, !tbaa !4
  %19 = zext i32 %18 to i64
  %20 = getelementptr inbounds nuw i32, ptr %17, i64 %19
  store i32 %16, ptr %20, align 4, !tbaa !4
  call void @llvm.lifetime.end.p0(i64 8, ptr %9) #10
  br label %29

21:                                               ; preds = %4
  call void @llvm.lifetime.start.p0(i64 8, ptr %10) #10
  %22 = load ptr, ptr %7, align 8, !tbaa !8
  store ptr %22, ptr %10, align 8, !tbaa !30
  %23 = load i32, ptr %5, align 4, !tbaa !4
  %24 = trunc i32 %23 to i16
  %25 = load ptr, ptr %10, align 8, !tbaa !30
  %26 = load i32, ptr %6, align 4, !tbaa !4
  %27 = zext i32 %26 to i64
  %28 = getelementptr inbounds nuw i16, ptr %25, i64 %27
  store i16 %24, ptr %28, align 2, !tbaa !32
  call void @llvm.lifetime.end.p0(i64 8, ptr %10) #10
  br label %29

29:                                               ; preds = %21, %14, %13
  ret void
}

; Function Attrs: alwaysinline nounwind uwtable
define internal i32 @LZ4_hashPosition(ptr noundef %0, i32 noundef %1) #2 {
  %3 = alloca i32, align 4
  %4 = alloca ptr, align 8
  %5 = alloca i32, align 4
  store ptr %0, ptr %4, align 8, !tbaa !8
  store i32 %1, ptr %5, align 4, !tbaa !4
  %6 = load i32, ptr %5, align 4, !tbaa !4
  %7 = icmp ne i32 %6, 3
  br i1 %7, label %8, label %13

8:                                                ; preds = %2
  %9 = load ptr, ptr %4, align 8, !tbaa !8
  %10 = call i64 @LZ4_read_ARCH(ptr noundef %9)
  %11 = load i32, ptr %5, align 4, !tbaa !4
  %12 = call i32 @LZ4_hash5(i64 noundef %10, i32 noundef %11)
  store i32 %12, ptr %3, align 4
  br label %18

13:                                               ; preds = %2
  %14 = load ptr, ptr %4, align 8, !tbaa !8
  %15 = call i32 @LZ4_read32(ptr noundef %14)
  %16 = load i32, ptr %5, align 4, !tbaa !4
  %17 = call i32 @LZ4_hash4(i32 noundef %15, i32 noundef %16)
  store i32 %17, ptr %3, align 4
  br label %18

18:                                               ; preds = %13, %8
  %19 = load i32, ptr %3, align 4
  ret i32 %19
}

; Function Attrs: nounwind uwtable
define dso_local void @LZ4_resetStream(ptr noundef %0) #0 {
  %2 = alloca ptr, align 8
  store ptr %0, ptr %2, align 8, !tbaa !25
  %3 = load ptr, ptr %2, align 8, !tbaa !25
  call void @llvm.memset.p0.i64(ptr align 8 %3, i8 0, i64 16416, i1 false)
  ret void
}

; Function Attrs: nounwind uwtable
define dso_local i32 @LZ4_loadDict_internal(ptr noundef %0, ptr noundef %1, i32 noundef %2, i32 noundef %3) #0 {
  %5 = alloca i32, align 4
  %6 = alloca ptr, align 8
  %7 = alloca ptr, align 8
  %8 = alloca i32, align 4
  %9 = alloca i32, align 4
  %10 = alloca ptr, align 8
  %11 = alloca i32, align 4
  %12 = alloca ptr, align 8
  %13 = alloca ptr, align 8
  %14 = alloca i32, align 4
  %15 = alloca i32, align 4
  %16 = alloca i32, align 4
  %17 = alloca i32, align 4
  %18 = alloca i32, align 4
  store ptr %0, ptr %6, align 8, !tbaa !25
  store ptr %1, ptr %7, align 8, !tbaa !10
  store i32 %2, ptr %8, align 4, !tbaa !4
  store i32 %3, ptr %9, align 4, !tbaa !4
  call void @llvm.lifetime.start.p0(i64 8, ptr %10) #10
  %19 = load ptr, ptr %6, align 8, !tbaa !25
  store ptr %19, ptr %10, align 8, !tbaa !12
  call void @llvm.lifetime.start.p0(i64 4, ptr %11) #10
  store i32 2, ptr %11, align 4, !tbaa !4
  call void @llvm.lifetime.start.p0(i64 8, ptr %12) #10
  %20 = load ptr, ptr %7, align 8, !tbaa !10
  store ptr %20, ptr %12, align 8, !tbaa !10
  call void @llvm.lifetime.start.p0(i64 8, ptr %13) #10
  %21 = load ptr, ptr %12, align 8, !tbaa !10
  %22 = load i32, ptr %8, align 4, !tbaa !4
  %23 = sext i32 %22 to i64
  %24 = getelementptr inbounds i8, ptr %21, i64 %23
  store ptr %24, ptr %13, align 8, !tbaa !10
  call void @llvm.lifetime.start.p0(i64 4, ptr %14) #10
  %25 = load ptr, ptr %6, align 8, !tbaa !25
  call void @LZ4_resetStream(ptr noundef %25)
  %26 = load ptr, ptr %10, align 8, !tbaa !12
  %27 = getelementptr inbounds nuw %struct.LZ4_stream_t_internal, ptr %26, i32 0, i32 3
  %28 = load i32, ptr %27, align 8, !tbaa !19
  %29 = add i32 %28, 65536
  store i32 %29, ptr %27, align 8, !tbaa !19
  %30 = load i32, ptr %8, align 4, !tbaa !4
  %31 = icmp slt i32 %30, 8
  br i1 %31, label %32, label %33

32:                                               ; preds = %4
  store i32 0, ptr %5, align 4
  store i32 1, ptr %15, align 4
  br label %130

33:                                               ; preds = %4
  %34 = load ptr, ptr %13, align 8, !tbaa !10
  %35 = load ptr, ptr %12, align 8, !tbaa !10
  %36 = ptrtoint ptr %34 to i64
  %37 = ptrtoint ptr %35 to i64
  %38 = sub i64 %36, %37
  %39 = icmp sgt i64 %38, 65536
  br i1 %39, label %40, label %43

40:                                               ; preds = %33
  %41 = load ptr, ptr %13, align 8, !tbaa !10
  %42 = getelementptr inbounds i8, ptr %41, i64 -65536
  store ptr %42, ptr %12, align 8, !tbaa !10
  br label %43

43:                                               ; preds = %40, %33
  %44 = load ptr, ptr %12, align 8, !tbaa !10
  %45 = load ptr, ptr %10, align 8, !tbaa !12
  %46 = getelementptr inbounds nuw %struct.LZ4_stream_t_internal, ptr %45, i32 0, i32 1
  store ptr %44, ptr %46, align 8, !tbaa !23
  %47 = load ptr, ptr %13, align 8, !tbaa !10
  %48 = load ptr, ptr %12, align 8, !tbaa !10
  %49 = ptrtoint ptr %47 to i64
  %50 = ptrtoint ptr %48 to i64
  %51 = sub i64 %49, %50
  %52 = trunc i64 %51 to i32
  %53 = load ptr, ptr %10, align 8, !tbaa !12
  %54 = getelementptr inbounds nuw %struct.LZ4_stream_t_internal, ptr %53, i32 0, i32 5
  store i32 %52, ptr %54, align 8, !tbaa !24
  %55 = load ptr, ptr %10, align 8, !tbaa !12
  %56 = getelementptr inbounds nuw %struct.LZ4_stream_t_internal, ptr %55, i32 0, i32 4
  store i32 2, ptr %56, align 4, !tbaa !21
  %57 = load ptr, ptr %10, align 8, !tbaa !12
  %58 = getelementptr inbounds nuw %struct.LZ4_stream_t_internal, ptr %57, i32 0, i32 3
  %59 = load i32, ptr %58, align 8, !tbaa !19
  %60 = load ptr, ptr %10, align 8, !tbaa !12
  %61 = getelementptr inbounds nuw %struct.LZ4_stream_t_internal, ptr %60, i32 0, i32 5
  %62 = load i32, ptr %61, align 8, !tbaa !24
  %63 = sub i32 %59, %62
  store i32 %63, ptr %14, align 4, !tbaa !4
  br label %64

64:                                               ; preds = %69, %43
  %65 = load ptr, ptr %12, align 8, !tbaa !10
  %66 = load ptr, ptr %13, align 8, !tbaa !10
  %67 = getelementptr inbounds i8, ptr %66, i64 -8
  %68 = icmp ule ptr %65, %67
  br i1 %68, label %69, label %81

69:                                               ; preds = %64
  call void @llvm.lifetime.start.p0(i64 4, ptr %16) #10
  %70 = load ptr, ptr %12, align 8, !tbaa !10
  %71 = call i32 @LZ4_hashPosition(ptr noundef %70, i32 noundef 2)
  store i32 %71, ptr %16, align 4, !tbaa !4
  %72 = load i32, ptr %14, align 4, !tbaa !4
  %73 = load i32, ptr %16, align 4, !tbaa !4
  %74 = load ptr, ptr %10, align 8, !tbaa !12
  %75 = getelementptr inbounds nuw %struct.LZ4_stream_t_internal, ptr %74, i32 0, i32 0
  %76 = getelementptr inbounds [4096 x i32], ptr %75, i64 0, i64 0
  call void @LZ4_putIndexOnHash(i32 noundef %72, i32 noundef %73, ptr noundef %76, i32 noundef 2)
  %77 = load ptr, ptr %12, align 8, !tbaa !10
  %78 = getelementptr inbounds i8, ptr %77, i64 3
  store ptr %78, ptr %12, align 8, !tbaa !10
  %79 = load i32, ptr %14, align 4, !tbaa !4
  %80 = add i32 %79, 3
  store i32 %80, ptr %14, align 4, !tbaa !4
  call void @llvm.lifetime.end.p0(i64 4, ptr %16) #10
  br label %64, !llvm.loop !27

81:                                               ; preds = %64
  %82 = load i32, ptr %9, align 4, !tbaa !4
  %83 = icmp eq i32 %82, 1
  br i1 %83, label %84, label %126

84:                                               ; preds = %81
  %85 = load ptr, ptr %10, align 8, !tbaa !12
  %86 = getelementptr inbounds nuw %struct.LZ4_stream_t_internal, ptr %85, i32 0, i32 1
  %87 = load ptr, ptr %86, align 8, !tbaa !23
  store ptr %87, ptr %12, align 8, !tbaa !10
  %88 = load ptr, ptr %10, align 8, !tbaa !12
  %89 = getelementptr inbounds nuw %struct.LZ4_stream_t_internal, ptr %88, i32 0, i32 3
  %90 = load i32, ptr %89, align 8, !tbaa !19
  %91 = load ptr, ptr %10, align 8, !tbaa !12
  %92 = getelementptr inbounds nuw %struct.LZ4_stream_t_internal, ptr %91, i32 0, i32 5
  %93 = load i32, ptr %92, align 8, !tbaa !24
  %94 = sub i32 %90, %93
  store i32 %94, ptr %14, align 4, !tbaa !4
  br label %95

95:                                               ; preds = %120, %84
  %96 = load ptr, ptr %12, align 8, !tbaa !10
  %97 = load ptr, ptr %13, align 8, !tbaa !10
  %98 = getelementptr inbounds i8, ptr %97, i64 -8
  %99 = icmp ule ptr %96, %98
  br i1 %99, label %100, label %125

100:                                              ; preds = %95
  call void @llvm.lifetime.start.p0(i64 4, ptr %17) #10
  %101 = load ptr, ptr %12, align 8, !tbaa !10
  %102 = call i32 @LZ4_hashPosition(ptr noundef %101, i32 noundef 2)
  store i32 %102, ptr %17, align 4, !tbaa !4
  call void @llvm.lifetime.start.p0(i64 4, ptr %18) #10
  %103 = load ptr, ptr %10, align 8, !tbaa !12
  %104 = getelementptr inbounds nuw %struct.LZ4_stream_t_internal, ptr %103, i32 0, i32 3
  %105 = load i32, ptr %104, align 8, !tbaa !19
  %106 = sub i32 %105, 65536
  store i32 %106, ptr %18, align 4, !tbaa !4
  %107 = load i32, ptr %17, align 4, !tbaa !4
  %108 = load ptr, ptr %10, align 8, !tbaa !12
  %109 = getelementptr inbounds nuw %struct.LZ4_stream_t_internal, ptr %108, i32 0, i32 0
  %110 = getelementptr inbounds [4096 x i32], ptr %109, i64 0, i64 0
  %111 = call i32 @LZ4_getIndexOnHash(i32 noundef %107, ptr noundef %110, i32 noundef 2)
  %112 = load i32, ptr %18, align 4, !tbaa !4
  %113 = icmp ule i32 %111, %112
  br i1 %113, label %114, label %120

114:                                              ; preds = %100
  %115 = load i32, ptr %14, align 4, !tbaa !4
  %116 = load i32, ptr %17, align 4, !tbaa !4
  %117 = load ptr, ptr %10, align 8, !tbaa !12
  %118 = getelementptr inbounds nuw %struct.LZ4_stream_t_internal, ptr %117, i32 0, i32 0
  %119 = getelementptr inbounds [4096 x i32], ptr %118, i64 0, i64 0
  call void @LZ4_putIndexOnHash(i32 noundef %115, i32 noundef %116, ptr noundef %119, i32 noundef 2)
  br label %120

120:                                              ; preds = %114, %100
  %121 = load ptr, ptr %12, align 8, !tbaa !10
  %122 = getelementptr inbounds nuw i8, ptr %121, i32 1
  store ptr %122, ptr %12, align 8, !tbaa !10
  %123 = load i32, ptr %14, align 4, !tbaa !4
  %124 = add i32 %123, 1
  store i32 %124, ptr %14, align 4, !tbaa !4
  call void @llvm.lifetime.end.p0(i64 4, ptr %18) #10
  call void @llvm.lifetime.end.p0(i64 4, ptr %17) #10
  br label %95, !llvm.loop !29

125:                                              ; preds = %95
  br label %126

126:                                              ; preds = %125, %81
  %127 = load ptr, ptr %10, align 8, !tbaa !12
  %128 = getelementptr inbounds nuw %struct.LZ4_stream_t_internal, ptr %127, i32 0, i32 5
  %129 = load i32, ptr %128, align 8, !tbaa !24
  store i32 %129, ptr %5, align 4
  store i32 1, ptr %15, align 4
  br label %130

130:                                              ; preds = %126, %32
  call void @llvm.lifetime.end.p0(i64 4, ptr %14) #10
  call void @llvm.lifetime.end.p0(i64 8, ptr %13) #10
  call void @llvm.lifetime.end.p0(i64 8, ptr %12) #10
  call void @llvm.lifetime.end.p0(i64 4, ptr %11) #10
  call void @llvm.lifetime.end.p0(i64 8, ptr %10) #10
  %131 = load i32, ptr %5, align 4
  ret i32 %131
}