; Function Attrs: nofree norecurse nosync nounwind memory(argmem: readwrite) uwtable
define dso_local i32 @LZ4_loadDict_internal(ptr noundef captures(none) initializes((0, 16416)) %0, ptr noundef %1, i32 noundef %2, i32 noundef %3) local_unnamed_addr #10 {
  tail call void @llvm.memset.p0.i64(ptr noundef nonnull align 8 dereferenceable(16416) %0, i8 0, i64 16416, i1 false)
  %5 = getelementptr inbounds nuw i8, ptr %0, i64 16400
  store i32 65536, ptr %5, align 8, !tbaa !7
  %6 = icmp slt i32 %2, 8
  br i1 %6, label %.loopexit, label %7

7:                                                ; preds = %4
  %8 = zext nneg i32 %2 to i64
  %9 = getelementptr inbounds nuw i8, ptr %1, i64 %8
  %10 = ptrtoint ptr %9 to i64
  %11 = icmp samesign ugt i32 %2, 65536
  %12 = getelementptr inbounds i8, ptr %9, i64 -65536
  %spec.select = select i1 %11, ptr %12, ptr %1
  %13 = getelementptr inbounds nuw i8, ptr %0, i64 16384
  store ptr %spec.select, ptr %13, align 8, !tbaa !35
  %14 = ptrtoint ptr %spec.select to i64
  %15 = sub i64 %10, %14
  %16 = trunc i64 %15 to i32
  %17 = getelementptr inbounds nuw i8, ptr %0, i64 16408
  store i32 %16, ptr %17, align 8, !tbaa !13
  %18 = getelementptr inbounds nuw i8, ptr %0, i64 16404
  store i32 2, ptr %18, align 4, !tbaa !14
  %19 = sub i32 65536, %16
  %20 = getelementptr inbounds i8, ptr %9, i64 -8
  %.not49 = icmp ugt ptr %spec.select, %20
  br i1 %.not49, label %.loopexit, label %.lr.ph

.lr.ph:                                           ; preds = %7, %.lr.ph
  %.151 = phi ptr [ %24, %.lr.ph ], [ %spec.select, %7 ]
  %.04450 = phi i32 [ %25, %.lr.ph ], [ %19, %7 ]
  %.1.val = load i64, ptr %.151, align 1, !tbaa !26
  %21 = mul i64 %.1.val, -3523014627271114752
  %22 = lshr i64 %21, 52
  %23 = getelementptr inbounds nuw i32, ptr %0, i64 %22
  store i32 %.04450, ptr %23, align 4, !tbaa !31
  %24 = getelementptr inbounds nuw i8, ptr %.151, i64 3
  %25 = add i32 %.04450, 3
  %.not = icmp ugt ptr %24, %20
  br i1 %.not, label %._crit_edge, label %.lr.ph, !llvm.loop !36

._crit_edge:                                      ; preds = %.lr.ph
  %.not57 = icmp eq i32 %3, 1
  br i1 %.not57, label %.lr.ph55, label %.loopexit

.lr.ph55:                                         ; preds = %._crit_edge, %31
  %.254 = phi ptr [ %32, %31 ], [ %spec.select, %._crit_edge ]
  %.14553 = phi i32 [ %33, %31 ], [ %19, %._crit_edge ]
  %.2.val = load i64, ptr %.254, align 1, !tbaa !26
  %26 = mul i64 %.2.val, -3523014627271114752
  %27 = lshr i64 %26, 52
  %28 = getelementptr inbounds nuw i32, ptr %0, i64 %27
  %29 = load i32, ptr %28, align 4, !tbaa !31
  %.not48.not = icmp eq i32 %29, 0
  br i1 %.not48.not, label %30, label %31

30:                                               ; preds = %.lr.ph55
  store i32 %.14553, ptr %28, align 4, !tbaa !31
  br label %31

31:                                               ; preds = %30, %.lr.ph55
  %32 = getelementptr inbounds nuw i8, ptr %.254, i64 1
  %33 = add i32 %.14553, 1
  %.not47 = icmp ugt ptr %32, %20
  br i1 %.not47, label %.loopexit, label %.lr.ph55, !llvm.loop !37

.loopexit:                                        ; preds = %31, %7, %._crit_edge, %4
  %.0 = phi i32 [ 0, %4 ], [ %16, %._crit_edge ], [ %16, %7 ], [ %16, %31 ]
  ret i32 %.0
}